;
; File generated by cc65 v 2.16 - Git 83890e5
;
	.fopt		compiler,"cc65 v 2.16 - Git 83890e5"
	.setcpu		"6502"
	.smart		on
	.autoimport	on
	.case		on
	.debuginfo	off
	.importzp	sp, sreg, regsave, regbank
	.importzp	tmp1, tmp2, tmp3, tmp4, ptr1, ptr2, ptr3, ptr4
	.macpack	longbranch
	.forceimport	__STARTUP__
	.export		_NMI_flag
	.export		_Frame_Count
	.export		_index
	.export		_index4
	.export		_X1
	.export		_Y1
	.export		_state
	.export		_state4
	.export		_joypad1
	.export		_joypad1old
	.export		_joypad1test
	.export		_joypad2
	.export		_joypad2old
	.export		_joypad2test
	.export		_Horiz_scroll
	.export		_Horiz_scroll_Old
	.export		_Scroll_Adjusted_X
	.export		_Nametable
	.export		_NametableB
	.export		_walk_count
	.export		_X_speed
	.export		_Y_speed
	.export		_direction
	.export		_collision_Index
	.export		_high_byte
	.export		_collision
	.export		_temp
	.export		_SPRITES
	.export		_C_MAP
	.export		_C_MAP2
	.export		_N1
	.export		_N2
	.export		_C1
	.export		_C2
	.export		_PLATFORM
	.export		_PALETTE
	.export		_Walk_Moves
	.export		_MetaSprite_Y
	.export		_MetaSprite_Tile_R
	.export		_MetaSprite_Attrib_R
	.export		_MetaSprite_X
	.export		_MetaSprite_Tile_L
	.export		_MetaSprite_Attrib_L
	.export		_AllOff
	.export		_AllOn
	.export		_ResetScroll
	.export		_LoadPalette
	.export		_UpdateSprites
	.export		_CollisionDown
	.export		_MoveLogic
	.export		_DrawBackground
	.import		_memcpy
	.import		_Wait_Vblank
	.import		_UnRLE
	.import		_Get_Input
	.export		_main

.segment	"RODATA"

_N1:
	.byte	$01
	.byte	$00
	.byte	$01
	.byte	$FE
	.byte	$00
	.byte	$01
	.byte	$D8
	.byte	$14
	.byte	$01
	.byte	$07
	.byte	$00
	.byte	$01
	.byte	$17
	.byte	$14
	.byte	$01
	.byte	$07
	.byte	$00
	.byte	$01
	.byte	$09
	.byte	$14
	.byte	$01
	.byte	$03
	.byte	$00
	.byte	$01
	.byte	$1B
	.byte	$14
	.byte	$01
	.byte	$03
	.byte	$00
	.byte	$01
	.byte	$67
	.byte	$14
	.byte	$01
	.byte	$09
	.byte	$00
	.byte	$01
	.byte	$15
	.byte	$14
	.byte	$01
	.byte	$09
	.byte	$00
	.byte	$01
	.byte	$05
	.byte	$05
	.byte	$06
	.byte	$01
	.byte	$09
	.byte	$07
	.byte	$00
	.byte	$01
	.byte	$13
	.byte	$15
	.byte	$16
	.byte	$01
	.byte	$09
	.byte	$17
	.byte	$00
	.byte	$01
	.byte	$13
	.byte	$15
	.byte	$16
	.byte	$01
	.byte	$09
	.byte	$17
	.byte	$00
	.byte	$01
	.byte	$13
	.byte	$18
	.byte	$19
	.byte	$01
	.byte	$09
	.byte	$1A
	.byte	$00
	.byte	$01
	.byte	$0D
	.byte	$02
	.byte	$01
	.byte	$7F
	.byte	$00
	.byte	$01
	.byte	$28
	.byte	$40
	.byte	$50
	.byte	$50
	.byte	$10
	.byte	$00
	.byte	$01
	.byte	$02
	.byte	$F0
	.byte	$F4
	.byte	$F5
	.byte	$F5
	.byte	$F1
	.byte	$F0
	.byte	$01
	.byte	$02
	.byte	$0F
	.byte	$01
	.byte	$07
	.byte	$01
	.byte	$00
_N2:
	.byte	$01
	.byte	$00
	.byte	$01
	.byte	$FE
	.byte	$00
	.byte	$01
	.byte	$90
	.byte	$14
	.byte	$01
	.byte	$09
	.byte	$00
	.byte	$01
	.byte	$15
	.byte	$14
	.byte	$01
	.byte	$09
	.byte	$00
	.byte	$01
	.byte	$8D
	.byte	$05
	.byte	$06
	.byte	$01
	.byte	$09
	.byte	$07
	.byte	$00
	.byte	$01
	.byte	$13
	.byte	$15
	.byte	$16
	.byte	$01
	.byte	$09
	.byte	$17
	.byte	$00
	.byte	$01
	.byte	$0B
	.byte	$14
	.byte	$14
	.byte	$00
	.byte	$01
	.byte	$05
	.byte	$15
	.byte	$16
	.byte	$01
	.byte	$09
	.byte	$17
	.byte	$00
	.byte	$01
	.byte	$0B
	.byte	$14
	.byte	$14
	.byte	$00
	.byte	$01
	.byte	$05
	.byte	$15
	.byte	$16
	.byte	$01
	.byte	$09
	.byte	$17
	.byte	$00
	.byte	$01
	.byte	$13
	.byte	$15
	.byte	$16
	.byte	$01
	.byte	$08
	.byte	$14
	.byte	$01
	.byte	$05
	.byte	$00
	.byte	$01
	.byte	$0F
	.byte	$15
	.byte	$16
	.byte	$01
	.byte	$08
	.byte	$14
	.byte	$01
	.byte	$05
	.byte	$00
	.byte	$01
	.byte	$0F
	.byte	$15
	.byte	$16
	.byte	$01
	.byte	$09
	.byte	$0A
	.byte	$00
	.byte	$01
	.byte	$13
	.byte	$18
	.byte	$19
	.byte	$01
	.byte	$09
	.byte	$1A
	.byte	$00
	.byte	$01
	.byte	$0B
	.byte	$02
	.byte	$01
	.byte	$80
	.byte	$00
	.byte	$01
	.byte	$20
	.byte	$50
	.byte	$01
	.byte	$02
	.byte	$00
	.byte	$01
	.byte	$04
	.byte	$55
	.byte	$55
	.byte	$15
	.byte	$00
	.byte	$01
	.byte	$02
	.byte	$F0
	.byte	$F0
	.byte	$F5
	.byte	$01
	.byte	$02
	.byte	$F0
	.byte	$01
	.byte	$02
	.byte	$0F
	.byte	$01
	.byte	$07
	.byte	$01
	.byte	$00
_C1:
	.byte	$00
	.byte	$00
	.byte	$00
	.byte	$00
	.byte	$00
	.byte	$00
	.byte	$00
	.byte	$00
	.byte	$00
	.byte	$00
	.byte	$00
	.byte	$00
	.byte	$00
	.byte	$00
	.byte	$00
	.byte	$00
	.byte	$00
	.byte	$00
	.byte	$00
	.byte	$00
	.byte	$00
	.byte	$00
	.byte	$00
	.byte	$00
	.byte	$00
	.byte	$00
	.byte	$00
	.byte	$00
	.byte	$00
	.byte	$00
	.byte	$00
	.byte	$00
	.byte	$00
	.byte	$00
	.byte	$00
	.byte	$00
	.byte	$00
	.byte	$00
	.byte	$00
	.byte	$00
	.byte	$00
	.byte	$00
	.byte	$00
	.byte	$00
	.byte	$00
	.byte	$00
	.byte	$00
	.byte	$00
	.byte	$00
	.byte	$00
	.byte	$00
	.byte	$00
	.byte	$00
	.byte	$00
	.byte	$00
	.byte	$00
	.byte	$00
	.byte	$00
	.byte	$00
	.byte	$00
	.byte	$00
	.byte	$00
	.byte	$00
	.byte	$00
	.byte	$00
	.byte	$00
	.byte	$00
	.byte	$00
	.byte	$00
	.byte	$00
	.byte	$00
	.byte	$00
	.byte	$00
	.byte	$00
	.byte	$00
	.byte	$00
	.byte	$00
	.byte	$00
	.byte	$00
	.byte	$00
	.byte	$00
	.byte	$00
	.byte	$00
	.byte	$00
	.byte	$00
	.byte	$00
	.byte	$00
	.byte	$00
	.byte	$00
	.byte	$00
	.byte	$00
	.byte	$00
	.byte	$00
	.byte	$00
	.byte	$00
	.byte	$00
	.byte	$00
	.byte	$00
	.byte	$00
	.byte	$00
	.byte	$00
	.byte	$00
	.byte	$00
	.byte	$00
	.byte	$00
	.byte	$00
	.byte	$00
	.byte	$00
	.byte	$00
	.byte	$00
	.byte	$00
	.byte	$00
	.byte	$00
	.byte	$00
	.byte	$00
	.byte	$00
	.byte	$00
	.byte	$00
	.byte	$00
	.byte	$00
	.byte	$00
	.byte	$00
	.byte	$00
	.byte	$00
	.byte	$02
	.byte	$02
	.byte	$02
	.byte	$02
	.byte	$00
	.byte	$00
	.byte	$00
	.byte	$00
	.byte	$00
	.byte	$02
	.byte	$02
	.byte	$00
	.byte	$00
	.byte	$00
	.byte	$00
	.byte	$00
	.byte	$00
	.byte	$00
	.byte	$00
	.byte	$00
	.byte	$00
	.byte	$00
	.byte	$00
	.byte	$00
	.byte	$00
	.byte	$00
	.byte	$00
	.byte	$00
	.byte	$00
	.byte	$00
	.byte	$00
	.byte	$00
	.byte	$00
	.byte	$00
	.byte	$00
	.byte	$00
	.byte	$00
	.byte	$00
	.byte	$00
	.byte	$00
	.byte	$00
	.byte	$00
	.byte	$00
	.byte	$00
	.byte	$00
	.byte	$00
	.byte	$00
	.byte	$02
	.byte	$02
	.byte	$02
	.byte	$02
	.byte	$02
	.byte	$00
	.byte	$00
	.byte	$00
	.byte	$03
	.byte	$04
	.byte	$04
	.byte	$04
	.byte	$04
	.byte	$05
	.byte	$00
	.byte	$00
	.byte	$00
	.byte	$00
	.byte	$00
	.byte	$00
	.byte	$00
	.byte	$00
	.byte	$00
	.byte	$00
	.byte	$09
	.byte	$0A
	.byte	$0A
	.byte	$0A
	.byte	$0A
	.byte	$0B
	.byte	$00
	.byte	$00
	.byte	$00
	.byte	$00
	.byte	$00
	.byte	$00
	.byte	$00
	.byte	$01
	.byte	$01
	.byte	$01
	.byte	$01
	.byte	$01
	.byte	$01
	.byte	$01
	.byte	$01
	.byte	$01
	.byte	$01
	.byte	$01
	.byte	$01
	.byte	$01
	.byte	$01
	.byte	$01
	.byte	$01
	.byte	$01
	.byte	$01
	.byte	$01
	.byte	$01
	.byte	$01
	.byte	$01
	.byte	$01
	.byte	$01
	.byte	$01
	.byte	$01
	.byte	$01
	.byte	$01
	.byte	$01
	.byte	$01
	.byte	$01
	.byte	$01
_C2:
	.byte	$00
	.byte	$00
	.byte	$00
	.byte	$00
	.byte	$00
	.byte	$00
	.byte	$00
	.byte	$00
	.byte	$00
	.byte	$00
	.byte	$00
	.byte	$00
	.byte	$00
	.byte	$00
	.byte	$00
	.byte	$00
	.byte	$00
	.byte	$00
	.byte	$00
	.byte	$00
	.byte	$00
	.byte	$00
	.byte	$00
	.byte	$00
	.byte	$00
	.byte	$00
	.byte	$00
	.byte	$00
	.byte	$00
	.byte	$00
	.byte	$00
	.byte	$00
	.byte	$00
	.byte	$00
	.byte	$00
	.byte	$00
	.byte	$00
	.byte	$00
	.byte	$00
	.byte	$00
	.byte	$00
	.byte	$00
	.byte	$00
	.byte	$00
	.byte	$00
	.byte	$00
	.byte	$00
	.byte	$00
	.byte	$00
	.byte	$00
	.byte	$00
	.byte	$00
	.byte	$00
	.byte	$00
	.byte	$00
	.byte	$00
	.byte	$00
	.byte	$00
	.byte	$00
	.byte	$00
	.byte	$00
	.byte	$00
	.byte	$00
	.byte	$00
	.byte	$00
	.byte	$00
	.byte	$00
	.byte	$00
	.byte	$00
	.byte	$00
	.byte	$00
	.byte	$00
	.byte	$00
	.byte	$00
	.byte	$00
	.byte	$00
	.byte	$00
	.byte	$00
	.byte	$00
	.byte	$00
	.byte	$00
	.byte	$00
	.byte	$00
	.byte	$00
	.byte	$00
	.byte	$00
	.byte	$00
	.byte	$00
	.byte	$00
	.byte	$00
	.byte	$00
	.byte	$00
	.byte	$00
	.byte	$00
	.byte	$00
	.byte	$00
	.byte	$00
	.byte	$00
	.byte	$00
	.byte	$00
	.byte	$00
	.byte	$00
	.byte	$00
	.byte	$00
	.byte	$02
	.byte	$02
	.byte	$02
	.byte	$02
	.byte	$02
	.byte	$00
	.byte	$00
	.byte	$00
	.byte	$00
	.byte	$00
	.byte	$00
	.byte	$00
	.byte	$00
	.byte	$00
	.byte	$00
	.byte	$00
	.byte	$00
	.byte	$00
	.byte	$00
	.byte	$00
	.byte	$00
	.byte	$00
	.byte	$00
	.byte	$00
	.byte	$00
	.byte	$00
	.byte	$00
	.byte	$00
	.byte	$00
	.byte	$00
	.byte	$00
	.byte	$00
	.byte	$00
	.byte	$00
	.byte	$00
	.byte	$00
	.byte	$00
	.byte	$00
	.byte	$00
	.byte	$00
	.byte	$00
	.byte	$00
	.byte	$00
	.byte	$00
	.byte	$03
	.byte	$04
	.byte	$04
	.byte	$04
	.byte	$04
	.byte	$05
	.byte	$00
	.byte	$00
	.byte	$00
	.byte	$00
	.byte	$00
	.byte	$00
	.byte	$02
	.byte	$00
	.byte	$00
	.byte	$00
	.byte	$06
	.byte	$07
	.byte	$07
	.byte	$07
	.byte	$07
	.byte	$08
	.byte	$00
	.byte	$00
	.byte	$00
	.byte	$00
	.byte	$00
	.byte	$00
	.byte	$00
	.byte	$00
	.byte	$00
	.byte	$00
	.byte	$06
	.byte	$07
	.byte	$07
	.byte	$07
	.byte	$07
	.byte	$02
	.byte	$02
	.byte	$02
	.byte	$00
	.byte	$00
	.byte	$00
	.byte	$00
	.byte	$00
	.byte	$00
	.byte	$00
	.byte	$00
	.byte	$09
	.byte	$0A
	.byte	$0A
	.byte	$0A
	.byte	$0A
	.byte	$0B
	.byte	$00
	.byte	$00
	.byte	$00
	.byte	$00
	.byte	$00
	.byte	$00
	.byte	$01
	.byte	$01
	.byte	$01
	.byte	$01
	.byte	$01
	.byte	$01
	.byte	$01
	.byte	$01
	.byte	$01
	.byte	$01
	.byte	$01
	.byte	$01
	.byte	$01
	.byte	$01
	.byte	$01
	.byte	$01
	.byte	$01
	.byte	$01
	.byte	$01
	.byte	$01
	.byte	$01
	.byte	$01
	.byte	$01
	.byte	$01
	.byte	$01
	.byte	$01
	.byte	$01
	.byte	$01
	.byte	$01
	.byte	$01
	.byte	$01
	.byte	$01
_PLATFORM:
	.byte	$00
	.byte	$01
	.byte	$01
	.byte	$01
	.byte	$01
	.byte	$01
	.byte	$00
	.byte	$00
	.byte	$00
	.byte	$00
	.byte	$00
	.byte	$00
	.byte	$00
_PALETTE:
	.byte	$22
	.byte	$16
	.byte	$36
	.byte	$0F
	.byte	$00
	.byte	$08
	.byte	$18
	.byte	$39
	.byte	$00
	.byte	$00
	.byte	$10
	.byte	$20
	.byte	$00
	.byte	$0A
	.byte	$1A
	.byte	$2A
	.byte	$22
	.byte	$37
	.byte	$16
	.byte	$0F
	.byte	$00
	.byte	$00
	.byte	$00
	.byte	$00
	.byte	$00
	.byte	$00
	.byte	$00
	.byte	$00
	.byte	$00
	.byte	$00
	.byte	$05
	.byte	$15
_Walk_Moves:
	.byte	$00
	.byte	$01
	.byte	$00
	.byte	$02
_MetaSprite_Y:
	.byte	$00
	.byte	$00
	.byte	$08
	.byte	$08
_MetaSprite_Tile_R:
	.byte	$00
	.byte	$01
	.byte	$10
	.byte	$11
	.byte	$02
	.byte	$03
	.byte	$12
	.byte	$13
	.byte	$04
	.byte	$05
	.byte	$14
	.byte	$15
	.byte	$06
	.byte	$07
	.byte	$16
	.byte	$17
_MetaSprite_Attrib_R:
	.byte	$00
	.byte	$00
	.byte	$00
	.byte	$00
_MetaSprite_X:
	.byte	$00
	.byte	$08
	.byte	$00
	.byte	$08
_MetaSprite_Tile_L:
	.byte	$01
	.byte	$00
	.byte	$11
	.byte	$10
	.byte	$03
	.byte	$02
	.byte	$13
	.byte	$12
	.byte	$05
	.byte	$04
	.byte	$15
	.byte	$14
	.byte	$07
	.byte	$06
	.byte	$17
	.byte	$16
_MetaSprite_Attrib_L:
	.byte	$40
	.byte	$40
	.byte	$40
	.byte	$40

.segment	"BSS"

.segment	"ZEROPAGE"
_NMI_flag:
	.res	1,$00
_Frame_Count:
	.res	1,$00
_index:
	.res	1,$00
_index4:
	.res	1,$00
_X1:
	.res	1,$00
_Y1:
	.res	1,$00
_state:
	.res	1,$00
_state4:
	.res	1,$00
_joypad1:
	.res	1,$00
_joypad1old:
	.res	1,$00
_joypad1test:
	.res	1,$00
_joypad2:
	.res	1,$00
_joypad2old:
	.res	1,$00
_joypad2test:
	.res	1,$00
_Horiz_scroll:
	.res	1,$00
_Horiz_scroll_Old:
	.res	1,$00
_Scroll_Adjusted_X:
	.res	2,$00
_Nametable:
	.res	1,$00
_NametableB:
	.res	1,$00
_walk_count:
	.res	1,$00
_X_speed:
	.res	1,$00
_Y_speed:
	.res	1,$00
_direction:
	.res	1,$00
_collision_Index:
	.res	1,$00
_high_byte:
	.res	1,$00
_collision:
	.res	1,$00
_temp:
	.res	1,$00
.segment	"OAM"
_SPRITES:
	.res	256,$00
.segment	"MAP"
_C_MAP:
	.res	256,$00
_C_MAP2:
	.res	256,$00

; ---------------------------------------------------------------
; void __near__ AllOff (void)
; ---------------------------------------------------------------

.segment	"CODE"

.proc	_AllOff: near

.segment	"CODE"

;
; PPU_CTRL = 0;
;
	lda     #$00
	sta     $2000
;
; PPU_MASK = 0;
;
	sta     $2001
;
; }
;
	rts

.endproc

; ---------------------------------------------------------------
; void __near__ AllOn (void)
; ---------------------------------------------------------------

.segment	"CODE"

.proc	_AllOn: near

.segment	"CODE"

;
; PPU_CTRL = 0x90; // screen is on, NMI on
;
	lda     #$90
	sta     $2000
;
; PPU_MASK = 0x1e;
;
	lda     #$1E
	sta     $2001
;
; }
;
	rts

.endproc

; ---------------------------------------------------------------
; void __near__ ResetScroll (void)
; ---------------------------------------------------------------

.segment	"CODE"

.proc	_ResetScroll: near

.segment	"CODE"

;
; PPU_ADDRESS = 0;
;
	lda     #$00
	sta     $2006
;
; PPU_ADDRESS = 0;
;
	sta     $2006
;
; SCROLL = 0;
;
	sta     $2005
;
; SCROLL = 0;
;
	sta     $2005
;
; }
;
	rts

.endproc

; ---------------------------------------------------------------
; void __near__ LoadPalette (void)
; ---------------------------------------------------------------

.segment	"CODE"

.proc	_LoadPalette: near

.segment	"CODE"

;
; PPU_ADDRESS = 0x3f;
;
	lda     #$3F
	sta     $2006
;
; PPU_ADDRESS = 0x00;
;
	lda     #$00
	sta     $2006
;
; for (index = 0; index < sizeof(PALETTE); ++index)
;
	sta     _index
L04BD:	lda     _index
	cmp     #$20
	bcs     L036A
;
; PPU_DATA = PALETTE[index];
;
	ldy     _index
	lda     _PALETTE,y
	sta     $2007
;
; for (index = 0; index < sizeof(PALETTE); ++index)
;
	inc     _index
	jmp     L04BD
;
; }
;
L036A:	rts

.endproc

; ---------------------------------------------------------------
; void __near__ UpdateSprites (void)
; ---------------------------------------------------------------

.segment	"CODE"

.proc	_UpdateSprites: near

.segment	"CODE"

;
; state4 = state << 2; // shift left 2 = multiply 4
;
	lda     _state
	asl     a
	asl     a
	sta     _state4
;
; index4 = 0;
;
	lda     #$00
	sta     _index4
;
; if (direction == 0)
;
	lda     _direction
	jne     L04C5
;
; for (index = 0; index < 4; ++index)
;
	sta     _index
L04C4:	lda     _index
	cmp     #$04
	bcc     L04C7
;
; }
;
	rts
;
; SPRITES[index4] = MetaSprite_Y[index] + Y1; // relative y + master y
;
L04C7:	lda     #<(_SPRITES)
	ldx     #>(_SPRITES)
	clc
	adc     _index4
	bcc     L0388
	inx
L0388:	sta     ptr1
	stx     ptr1+1
	ldy     _index
	lda     _MetaSprite_Y,y
	clc
	adc     _Y1
	ldy     #$00
	sta     (ptr1),y
;
; ++index4;
;
	inc     _index4
;
; SPRITES[index4] = MetaSprite_Tile_R[index + state4]; // tile numbers
;
	lda     #<(_SPRITES)
	ldx     #>(_SPRITES)
	clc
	adc     _index4
	bcc     L038F
	inx
L038F:	sta     sreg
	stx     sreg+1
	ldx     #$00
	lda     _index
	clc
	adc     _state4
	bcc     L04BF
	inx
L04BF:	sta     ptr1
	txa
	clc
	adc     #>(_MetaSprite_Tile_R)
	sta     ptr1+1
	ldy     #<(_MetaSprite_Tile_R)
	lda     (ptr1),y
	ldy     #$00
	sta     (sreg),y
;
; ++index4;
;
	inc     _index4
;
; SPRITES[index4] = MetaSprite_Attrib_R[index]; // attributes, all zero here
;
	lda     #<(_SPRITES)
	ldx     #>(_SPRITES)
	clc
	adc     _index4
	bcc     L0395
	inx
L0395:	sta     ptr1
	stx     ptr1+1
	ldy     _index
	lda     _MetaSprite_Attrib_R,y
	ldy     #$00
	sta     (ptr1),y
;
; ++index4;
;
	inc     _index4
;
; SPRITES[index4] = MetaSprite_X[index] + X1; // relative x + master x
;
	lda     #<(_SPRITES)
	ldx     #>(_SPRITES)
	clc
	adc     _index4
	bcc     L039C
	inx
L039C:	sta     ptr1
	stx     ptr1+1
	ldy     _index
	lda     _MetaSprite_X,y
	clc
	adc     _X1
	ldy     #$00
	sta     (ptr1),y
;
; ++index4;
;
	inc     _index4
;
; for (index = 0; index < 4; ++index)
;
	inc     _index
	jmp     L04C4
;
; for (index = 0; index < 4; ++index)
;
L04C5:	lda     #$00
	sta     _index
L04C6:	lda     _index
	cmp     #$04
	bcc     L04C8
;
; }
;
	rts
;
; SPRITES[index4] = MetaSprite_Y[index] + Y1; // relative y + master y
;
L04C8:	lda     #<(_SPRITES)
	ldx     #>(_SPRITES)
	clc
	adc     _index4
	bcc     L03AC
	inx
L03AC:	sta     ptr1
	stx     ptr1+1
	ldy     _index
	lda     _MetaSprite_Y,y
	clc
	adc     _Y1
	ldy     #$00
	sta     (ptr1),y
;
; ++index4;
;
	inc     _index4
;
; SPRITES[index4] = MetaSprite_Tile_L[index + state4]; // tile numbers
;
	lda     #<(_SPRITES)
	ldx     #>(_SPRITES)
	clc
	adc     _index4
	bcc     L03B3
	inx
L03B3:	sta     sreg
	stx     sreg+1
	ldx     #$00
	lda     _index
	clc
	adc     _state4
	bcc     L04C2
	inx
L04C2:	sta     ptr1
	txa
	clc
	adc     #>(_MetaSprite_Tile_L)
	sta     ptr1+1
	ldy     #<(_MetaSprite_Tile_L)
	lda     (ptr1),y
	ldy     #$00
	sta     (sreg),y
;
; ++index4;
;
	inc     _index4
;
; SPRITES[index4] = MetaSprite_Attrib_L[index]; // attributes, all zero here
;
	lda     #<(_SPRITES)
	ldx     #>(_SPRITES)
	clc
	adc     _index4
	bcc     L03B9
	inx
L03B9:	sta     ptr1
	stx     ptr1+1
	ldy     _index
	lda     _MetaSprite_Attrib_L,y
	ldy     #$00
	sta     (ptr1),y
;
; ++index4;
;
	inc     _index4
;
; SPRITES[index4] = MetaSprite_X[index] + X1; // relative x + master x
;
	lda     #<(_SPRITES)
	ldx     #>(_SPRITES)
	clc
	adc     _index4
	bcc     L03C0
	inx
L03C0:	sta     ptr1
	stx     ptr1+1
	ldy     _index
	lda     _MetaSprite_X,y
	clc
	adc     _X1
	ldy     #$00
	sta     (ptr1),y
;
; ++index4;
;
	inc     _index4
;
; for (index = 0; index < 4; ++index)
;
	inc     _index
	jmp     L04C6

.endproc

; ---------------------------------------------------------------
; void __near__ CollisionDown (void)
; ---------------------------------------------------------------

.segment	"CODE"

.proc	_CollisionDown: near

.segment	"CODE"

;
; if (NametableB == 0)
;
	lda     _NametableB
	bne     L03C6
;
; temp = C_MAP[collision_Index];
;
	ldy     _collision_Index
	lda     _C_MAP,y
;
; else
;
	jmp     L04CE
;
; temp = C_MAP2[collision_Index];
;
L03C6:	ldy     _collision_Index
	lda     _C_MAP2,y
L04CE:	sta     _temp
;
; collision += PLATFORM[temp];
;
	ldy     _temp
	lda     _PLATFORM,y
	clc
	adc     _collision
	sta     _collision
;
; }
;
	rts

.endproc

; ---------------------------------------------------------------
; void __near__ MoveLogic (void)
; ---------------------------------------------------------------

.segment	"CODE"

.proc	_MoveLogic: near

.segment	"CODE"

;
; if ((joypad1 & (RIGHT | LEFT)) == 0)
;
	lda     _joypad1
	and     #$03
	bne     L04DB
;
; walk_count = 0;
;
	sta     _walk_count
;
; if (X_speed >= 0)
;
	ldx     _X_speed
	bmi     L03E1
;
; if (X_speed >= 4)
;
	lda     _X_speed
	sec
	sbc     #$04
	bvs     L03E7
	eor     #$80
L03E7:	asl     a
	lda     #$00
	bcc     L04DA
;
; X_speed -= 4;
;
	lda     _X_speed
	sec
	sbc     #$04
	sta     _X_speed
	bpl     L04DB
;
; else
;
	jmp     L04DB
;
; if (X_speed <= (-4))
;
L03E1:	lda     _X_speed
	sec
	sbc     #$FD
	bvc     L03F3
	eor     #$80
L03F3:	asl     a
	lda     #$00
	bcc     L04DA
;
; X_speed += 4;
;
	lda     #$04
	clc
	adc     _X_speed
	sta     _X_speed
	bpl     L04DB
;
; else
;
	jmp     L04DB
;
; X_speed = 0;
;
L04DA:	sta     _X_speed
;
; if ((joypad1 & RIGHT) != 0)
;
L04DB:	lda     _joypad1
	and     #$01
	beq     L04DC
;
; ++walk_count;
;
	inc     _walk_count
;
; direction = 0;
;
	lda     #$00
	sta     _direction
;
; if (X_speed >= 0)
;
	ldx     _X_speed
	bmi     L0401
;
; X_speed += 2;
;
	lda     #$02
	clc
	adc     _X_speed
	sta     _X_speed
	bpl     L04DC
;
; else
;
	jmp     L04DC
;
; X_speed += 8; // double friction
;
L0401:	lda     #$08
	clc
	adc     _X_speed
	sta     _X_speed
;
; if ((joypad1 & LEFT) != 0)
;
L04DC:	lda     _joypad1
	and     #$02
	beq     L04DE
;
; ++walk_count;
;
	inc     _walk_count
;
; direction = 1;
;
	lda     #$01
	sta     _direction
;
; if (X_speed <= 0)
;
	lda     _X_speed
	sec
	sbc     #$01
	bvc     L0415
	eor     #$80
L0415:	bpl     L04DD
;
; X_speed -= 2;
;
	lda     _X_speed
	sec
	sbc     #$02
	sta     _X_speed
	bpl     L04DE
;
; else
;
	jmp     L04DE
;
; X_speed -= 8; // double friction
;
L04DD:	lda     _X_speed
	sec
	sbc     #$08
	sta     _X_speed
;
; NametableB = Nametable;
;
L04DE:	lda     _Nametable
	sta     _NametableB
;
; Scroll_Adjusted_X = (X1 + Horiz_scroll + 3); // left
;
	ldx     #$00
	lda     _X1
	clc
	adc     _Horiz_scroll
	bcc     L04D5
	inx
	clc
L04D5:	adc     #$03
	bcc     L0422
	inx
L0422:	sta     _Scroll_Adjusted_X
	stx     _Scroll_Adjusted_X+1
;
; high_byte = Scroll_Adjusted_X >> 8;
;
	lda     _Scroll_Adjusted_X+1
	sta     _high_byte
;
; if (high_byte != 0)
;
	lda     _high_byte
	beq     L04DF
;
; ++NametableB;   // the other nametable's collision map
;
	inc     _NametableB
;
; NametableB &= 1; // keep it 0 or 1
;
	lda     _NametableB
	and     #$01
	sta     _NametableB
;
; collision_Index = (((char)Scroll_Adjusted_X >> 4) + ((Y1 + 16) & 0xf0));
;
L04DF:	lda     _Scroll_Adjusted_X
	lsr     a
	lsr     a
	lsr     a
	lsr     a
	sta     ptr1
	lda     _Y1
	clc
	adc     #$10
	and     #$F0
	clc
	adc     ptr1
	sta     _collision_Index
;
; collision = 0;
;
	lda     #$00
	sta     _collision
;
; CollisionDown(); // if on platform, ++collision
;
	jsr     _CollisionDown
;
; NametableB = Nametable;
;
	lda     _Nametable
	sta     _NametableB
;
; Scroll_Adjusted_X = (X1 + Horiz_scroll + 12);
;
	ldx     #$00
	lda     _X1
	clc
	adc     _Horiz_scroll
	bcc     L04D6
	inx
	clc
L04D6:	adc     #$0C
	bcc     L0439
	inx
L0439:	sta     _Scroll_Adjusted_X
	stx     _Scroll_Adjusted_X+1
;
; high_byte = Scroll_Adjusted_X >> 8;
;
	lda     _Scroll_Adjusted_X+1
	sta     _high_byte
;
; if (high_byte != 0)
;
	lda     _high_byte
	beq     L04E0
;
; ++NametableB;   // the other nametable's collision map
;
	inc     _NametableB
;
; NametableB &= 1; // keep it 0 or 1
;
	lda     _NametableB
	and     #$01
	sta     _NametableB
;
; collision_Index = (((char)Scroll_Adjusted_X >> 4) + ((Y1 + 16) & 0xf0)); // bottom right
;
L04E0:	lda     _Scroll_Adjusted_X
	lsr     a
	lsr     a
	lsr     a
	lsr     a
	sta     ptr1
	lda     _Y1
	clc
	adc     #$10
	and     #$F0
	clc
	adc     ptr1
	sta     _collision_Index
;
; CollisionDown(); // if on platform, ++collision
;
	jsr     _CollisionDown
;
; if ((Y1 & 0x0f) > 1) // only platform collide if nearly aligned to a metatile
;
	lda     _Y1
	and     #$0F
	cmp     #$02
	bcc     L04E1
;
; collision = 0;
;
	lda     #$00
	sta     _collision
;
; if (collision == 0)
;
L04E1:	lda     _collision
	bne     L04E2
;
; Y_speed += 2; // gravity
;
	lda     #$02
	clc
	adc     _Y_speed
	sta     _Y_speed
	bpl     L04E3
;
; else
;
	jmp     L04E3
;
; Y_speed = 0; // collision = stop falling
;
L04E2:	lda     #$00
	sta     _Y_speed
;
; Y1 &= 0xf0; // align to the metatile
;
	lda     _Y1
	and     #$F0
	sta     _Y1
;
; if (collision > 0)
;
L04E3:	lda     _collision
	beq     L04E7
;
; if (((joypad1 & A_BUTTON) != 0) && ((joypad1old & A_BUTTON) == 0))
;
	lda     _joypad1
	and     #$80
	beq     L04E7
	lda     _joypad1old
	and     #$80
	bne     L04E7
;
; Y_speed = -0x38; // 0xc8
;
	lda     #$C8
	sta     _Y_speed
;
; if (X_speed >= 0)
;
L04E7:	ldx     _X_speed
	bmi     L0466
;
; if (X_speed > 0x20)
;
	lda     _X_speed
	sec
	sbc     #$21
	bvs     L046C
	eor     #$80
L046C:	bpl     L04E8
;
; X_speed = 0x20;
;
	lda     #$20
;
; else
;
	jmp     L04D3
;
; if (X_speed < (-0x20))
;
L0466:	lda     _X_speed
	sec
	sbc     #$E0
	bvc     L0474
	eor     #$80
L0474:	bpl     L04E8
;
; X_speed = (-0x20); // 0xe0
;
	lda     #$E0
L04D3:	sta     _X_speed
;
; if (Y_speed >= 0)
;
L04E8:	ldx     _Y_speed
	bmi     L04E9
;
; if (Y_speed > 0x20)
;
	lda     _Y_speed
	sec
	sbc     #$21
	bvs     L047E
	eor     #$80
L047E:	bpl     L04E9
;
; Y_speed = 0x20;
;
	lda     #$20
	sta     _Y_speed
;
; Horiz_scroll_Old = Horiz_scroll;
;
L04E9:	lda     _Horiz_scroll
	sta     _Horiz_scroll_Old
;
; Horiz_scroll += (X_speed >> 4); // use the high nibble
;
	ldx     #$00
	lda     _X_speed
	bpl     L0486
	dex
L0486:	jsr     asrax4
	clc
	adc     _Horiz_scroll
	sta     _Horiz_scroll
;
; if (X_speed >= 0)
;
	ldx     _X_speed
	bmi     L0487
;
; if (Horiz_scroll_Old > Horiz_scroll) // if pass 0, switch nametables
;
	ldx     #$00
	lda     _Horiz_scroll_Old
	sec
	sbc     _Horiz_scroll
	bcc     L04EA
	beq     L04EA
;
; else
;
	jmp     L04EE
;
; if (Horiz_scroll_Old < Horiz_scroll)
;
L0487:	ldx     #$00
	lda     _Horiz_scroll_Old
	cmp     _Horiz_scroll
	bcs     L04EA
;
; ++Nametable; // if pass 0, switch nametables
;
L04EE:	inc     _Nametable
;
; Nametable &= 1; // keep it 1 or 0
;
L04EA:	lda     _Nametable
	and     #$01
	sta     _Nametable
;
; Y1 += (Y_speed >> 4); // use the high nibble
;
	lda     _Y_speed
	bpl     L0496
	dex
L0496:	jsr     asrax4
	clc
	adc     _Y1
	sta     _Y1
;
; if (walk_count > 0x1f) // walk_count forced 0-1f
;
	lda     _walk_count
	cmp     #$20
	ldx     #$00
	bcc     L04EB
;
; walk_count = 0;
;
	stx     _walk_count
;
; state = Walk_Moves[(walk_count >> 3)]; // if not jumping
;
L04EB:	lda     _walk_count
	lsr     a
	lsr     a
	lsr     a
	sta     ptr1
	txa
	clc
	adc     #>(_Walk_Moves)
	sta     ptr1+1
	ldy     #<(_Walk_Moves)
	lda     (ptr1),y
	sta     _state
;
; if (Y_speed < 0) // negative = jumping
;
	lda     _Y_speed
	asl     a
	bcc     L049F
;
; state = 3;
;
	lda     #$03
	sta     _state
;
; }
;
L049F:	rts

.endproc

; ---------------------------------------------------------------
; void __near__ DrawBackground (void)
; ---------------------------------------------------------------

.segment	"CODE"

.proc	_DrawBackground: near

.segment	"CODE"

;
; PPU_ADDRESS = 0x20; // address of nametable #0 = 0x2000
;
	lda     #$20
	sta     $2006
;
; PPU_ADDRESS = 0x00;
;
	lda     #$00
	sta     $2006
;
; UnRLE(N1); // uncompresses our data
;
	lda     #<(_N1)
	ldx     #>(_N1)
	jsr     _UnRLE
;
; PPU_ADDRESS = 0x24; // address of nametable #1 = 0x2400
;
	lda     #$24
	sta     $2006
;
; PPU_ADDRESS = 0x00;
;
	lda     #$00
	sta     $2006
;
; UnRLE(N2); // uncompresses our data
;
	lda     #<(_N2)
	ldx     #>(_N2)
	jsr     _UnRLE
;
; memcpy(C_MAP, C1, 240);
;
	lda     #<(_C_MAP)
	ldx     #>(_C_MAP)
	jsr     pushax
	lda     #<(_C1)
	ldx     #>(_C1)
	jsr     pushax
	ldx     #$00
	lda     #$F0
	jsr     _memcpy
;
; memcpy(C_MAP2, C2, 240);
;
	lda     #<(_C_MAP2)
	ldx     #>(_C_MAP2)
	jsr     pushax
	lda     #<(_C2)
	ldx     #>(_C2)
	jsr     pushax
	ldx     #$00
	lda     #$F0
	jmp     _memcpy

.endproc

; ---------------------------------------------------------------
; void __near__ main (void)
; ---------------------------------------------------------------

.segment	"CODE"

.proc	_main: near

.segment	"CODE"

;
; AllOff(); // turn off screen
;
	jsr     _AllOff
;
; DrawBackground();
;
	jsr     _DrawBackground
;
; X1 = 0x80;
;
	lda     #$80
	sta     _X1
;
; Y1 = 0x70; // middle of screen
;
	lda     #$70
	sta     _Y1
;
; LoadPalette();
;
	jsr     _LoadPalette
;
; ResetScroll();
;
	jsr     _ResetScroll
;
; Wait_Vblank();
;
	jsr     _Wait_Vblank
;
; AllOn(); // turn on screen
;
	jsr     _AllOn
;
; while (NMI_flag == 0); // wait till NMI
;
L04EF:	lda     _NMI_flag
	beq     L04EF
;
; Get_Input();
;
	jsr     _Get_Input
;
; MoveLogic();
;
	jsr     _MoveLogic
;
; UpdateSprites();
;
	jsr     _UpdateSprites
;
; NMI_flag = 0;
;
	lda     #$00
	sta     _NMI_flag
;
; while (1)
;
	jmp     L04EF

.endproc

